(i__main__
LogFile
p0
(dp1
S'_installed_files'
p2
(dp3
S'../../../MLTree/x86_64-slc6-gcc49-opt/libMLTree.so.debug'
p4
S'../../InstallArea/x86_64-slc6-gcc49-opt/lib/libMLTree.so.debug'
p5
sS'../../../MLTree/x86_64-slc6-gcc49-opt/libMLTree.so'
p6
S'../../InstallArea/x86_64-slc6-gcc49-opt/lib/libMLTree.so'
p7
sS'../../../../../../../../cvmfs/atlas.cern.ch/repo/sw/software/x86_64-slc6-gcc49-opt/20.7.7/GAUDI/v26r2p2-lcg81e/GaudiPolicy/cmt/fragments/__init__.py'
p8
S'../../InstallArea/python/MLTree/__init__.py'
p9
sS'../../MLTree/genConf/MLTree'
p10
(dp11
S'../../../MLTree/genConf/MLTree/MLTreeConf.py'
p12
S'../../InstallArea/python/MLTree/MLTreeConf.py'
p13
sssb.